; Function Attrs: nounwind uwtable
define internal ptr @_lzma_LZMACompressor_compress(ptr noundef %0, ptr noundef %1) #0 {
  %3 = alloca %struct.Py_buffer, align 8
  call void @llvm.lifetime.start.p0(i64 80, ptr nonnull %3) #10
  call void @llvm.memset.p0.i64(ptr noundef nonnull align 8 dereferenceable(80) %3, i8 0, i64 80, i1 false)
  %4 = call i32 @PyObject_GetBuffer(ptr noundef %1, ptr noundef nonnull %3, i32 noundef 0) #10
  %.not = icmp eq i32 %4, 0
  br i1 %.not, label %5, label %24

5:                                                ; preds = %2
  %6 = getelementptr inbounds nuw i8, ptr %0, i64 184
  %7 = load ptr, ptr %6, align 8, !tbaa !38
  %8 = call i32 @PyThread_acquire_lock(ptr noundef %7, i32 noundef 0) #10
  %.not.i = icmp eq i32 %8, 0
  br i1 %.not.i, label %9, label %13

9:                                                ; preds = %5
  %10 = call ptr @PyEval_SaveThread() #10
  %11 = load ptr, ptr %6, align 8, !tbaa !38
  %12 = call i32 @PyThread_acquire_lock(ptr noundef %11, i32 noundef 1) #10
  call void @PyEval_RestoreThread(ptr noundef %10) #10
  br label %13

13:                                               ; preds = %9, %5
  %14 = getelementptr inbounds nuw i8, ptr %0, i64 176
  %15 = load i32, ptr %14, align 8, !tbaa !57
  %.not9.i = icmp eq i32 %15, 0
  br i1 %.not9.i, label %18, label %16

16:                                               ; preds = %13
  %17 = load ptr, ptr @PyExc_ValueError, align 8, !tbaa !15
  call void @PyErr_SetString(ptr noundef %17, ptr noundef nonnull @.str.75) #10
  br label %_lzma_LZMACompressor_compress_impl.exit

18:                                               ; preds = %13
  %19 = load ptr, ptr %3, align 8, !tbaa !22
  %20 = getelementptr inbounds nuw i8, ptr %3, i64 16
  %21 = load i64, ptr %20, align 8, !tbaa !26
  %22 = call fastcc ptr @compress(ptr noundef nonnull %0, ptr noundef %19, i64 noundef %21, i32 noundef 0)
  br label %_lzma_LZMACompressor_compress_impl.exit

_lzma_LZMACompressor_compress_impl.exit:          ; preds = %16, %18
  %.0.i = phi ptr [ null, %16 ], [ %22, %18 ]
  %23 = load ptr, ptr %6, align 8, !tbaa !38
  call void @PyThread_release_lock(ptr noundef %23) #10
  br label %24

24:                                               ; preds = %2, %_lzma_LZMACompressor_compress_impl.exit
  %.0 = phi ptr [ null, %2 ], [ %.0.i, %_lzma_LZMACompressor_compress_impl.exit ]
  %25 = getelementptr inbounds nuw i8, ptr %3, i64 8
  %26 = load ptr, ptr %25, align 8, !tbaa !36
  %.not3 = icmp eq ptr %26, null
  br i1 %.not3, label %28, label %27

27:                                               ; preds = %24
  call void @PyBuffer_Release(ptr noundef nonnull %3) #10
  br label %28

28:                                               ; preds = %27, %24
  call void @llvm.lifetime.end.p0(i64 80, ptr nonnull %3) #10
  ret ptr %.0
}